; ModuleID = '25/99.cpp'
source_filename = "25/99.cpp"
target datalayout = "e-m:e-p270:32:32-p271:32:32-p272:64:64-i64:64-f80:128-n8:16:32:64-S128"
target triple = "x86_64-pc-linux-gnu"

%"class.std::ios_base::Init" = type { i8 }
%"class.std::basic_istream" = type { i32 (...)**, i64, %"class.std::basic_ios" }
%"class.std::basic_ios" = type { %"class.std::ios_base", %"class.std::basic_ostream"*, i8, i8, %"class.std::basic_streambuf"*, %"class.std::ctype"*, %"class.std::num_put"*, %"class.std::num_get"* }
%"class.std::ios_base" = type { i32 (...)**, i64, i64, i32, i32, i32, %"struct.std::ios_base::_Callback_list"*, %"struct.std::ios_base::_Words", [8 x %"struct.std::ios_base::_Words"], i32, %"struct.std::ios_base::_Words"*, %"class.std::locale" }
%"struct.std::ios_base::_Callback_list" = type { %"struct.std::ios_base::_Callback_list"*, void (i32, %"class.std::ios_base"*, i32)*, i32, i32 }
%"struct.std::ios_base::_Words" = type { i8*, i64 }
%"class.std::locale" = type { %"class.std::locale::_Impl"* }
%"class.std::locale::_Impl" = type { i32, %"class.std::locale::facet"**, i64, %"class.std::locale::facet"**, i8** }
%"class.std::locale::facet" = type <{ i32 (...)**, i32, [4 x i8] }>
%"class.std::basic_ostream" = type { i32 (...)**, %"class.std::basic_ios" }
%"class.std::basic_streambuf" = type { i32 (...)**, i8*, i8*, i8*, i8*, i8*, i8*, %"class.std::locale" }
%"class.std::ctype" = type <{ %"class.std::locale::facet.base", [4 x i8], %struct.__locale_struct*, i8, [7 x i8], i32*, i32*, i16*, i8, [256 x i8], [256 x i8], i8, [6 x i8] }>
%"class.std::locale::facet.base" = type <{ i32 (...)**, i32 }>
%struct.__locale_struct = type { [13 x %struct.__locale_data*], i16*, i32*, i32*, [13 x i8*] }
%struct.__locale_data = type opaque
%"class.std::num_put" = type { %"class.std::locale::facet.base", [4 x i8] }
%"class.std::num_get" = type { %"class.std::locale::facet.base", [4 x i8] }

@_ZStL8__ioinit = internal global %"class.std::ios_base::Init" zeroinitializer, align 1
@__dso_handle = external hidden global i8
@_ZSt3cin = external dso_local global %"class.std::basic_istream", align 8
@_ZSt4cout = external dso_local global %"class.std::basic_ostream", align 8
@llvm.global_ctors = appending global [1 x { i32, void ()*, i8* }] [{ i32, void ()*, i8* } { i32 65535, void ()* @_GLOBAL__sub_I_99.cpp, i8* null }]

; Function Attrs: noinline uwtable
define internal void @__cxx_global_var_init() #0 section ".text.startup" {
  call void @_ZNSt8ios_base4InitC1Ev(%"class.std::ios_base::Init"* @_ZStL8__ioinit)
  %1 = call i32 @__cxa_atexit(void (i8*)* bitcast (void (%"class.std::ios_base::Init"*)* @_ZNSt8ios_base4InitD1Ev to void (i8*)*), i8* getelementptr inbounds (%"class.std::ios_base::Init", %"class.std::ios_base::Init"* @_ZStL8__ioinit, i32 0, i32 0), i8* @__dso_handle) #3
  ret void
}

declare dso_local void @_ZNSt8ios_base4InitC1Ev(%"class.std::ios_base::Init"*) unnamed_addr #1

; Function Attrs: nounwind
declare dso_local void @_ZNSt8ios_base4InitD1Ev(%"class.std::ios_base::Init"*) unnamed_addr #2

; Function Attrs: nounwind
declare dso_local i32 @__cxa_atexit(void (i8*)*, i8*, i8*) #3

; Function Attrs: noinline norecurse uwtable
define dso_local i32 @main() #4 {
  %1 = alloca i32, align 4
  %2 = alloca i32, align 4
  %3 = alloca [40 x i32], align 16
  store i32 0, i32* %1, align 4
  %4 = bitcast [40 x i32]* %3 to i8*
  call void @llvm.memset.p0i8.i64(i8* align 16 %4, i8 0, i64 160, i1 false)
  %5 = bitcast i8* %4 to <{ i32, [39 x i32] }>*
  %6 = getelementptr inbounds <{ i32, [39 x i32] }>, <{ i32, [39 x i32] }>* %5, i32 0, i32 0
  store i32 1, i32* %6, align 16
  %7 = call dereferenceable(280) %"class.std::basic_istream"* @_ZNSirsERi(%"class.std::basic_istream"* @_ZSt3cin, i32* dereferenceable(4) %2)
  %8 = load i32, i32* %2, align 4
  %9 = getelementptr inbounds [40 x i32], [40 x i32]* %3, i64 0, i64 0
  call void @_Z3muliPi(i32 %8, i32* %9)
  ret i32 0
}

; Function Attrs: argmemonly nounwind willreturn
declare void @llvm.memset.p0i8.i64(i8* nocapture writeonly, i8, i64, i1 immarg) #5

declare dso_local dereferenceable(280) %"class.std::basic_istream"* @_ZNSirsERi(%"class.std::basic_istream"*, i32* dereferenceable(4)) #1

; Function Attrs: noinline uwtable
define dso_local void @_Z3muliPi(i32 %0, i32* %1) #0 {
  %3 = alloca i32, align 4
  %4 = alloca i32*, align 8
  %5 = alloca i32, align 4
  store i32 %0, i32* %3, align 4
  store i32* %1, i32** %4, align 8
  %6 = load i32, i32* %3, align 4
  %7 = icmp eq i32 %6, 0
  br i1 %7, label %8, label %10

8:                                                ; preds = %2
  %9 = load i32*, i32** %4, align 8
  call void @_Z3outPi(i32* %9)
  br label %65

10:                                               ; preds = %2
  store i32 0, i32* %5, align 4
  br label %11

11:                                               ; preds = %25, %10
  %12 = load i32, i32* %5, align 4
  %13 = icmp slt i32 %12, 40
  br i1 %13, label %14, label %28

14:                                               ; preds = %11
  %15 = load i32*, i32** %4, align 8
  %16 = load i32, i32* %5, align 4
  %17 = sext i32 %16 to i64
  %18 = getelementptr inbounds i32, i32* %15, i64 %17
  %19 = load i32, i32* %18, align 4
  %20 = mul nsw i32 %19, 2
  %21 = load i32*, i32** %4, align 8
  %22 = load i32, i32* %5, align 4
  %23 = sext i32 %22 to i64
  %24 = getelementptr inbounds i32, i32* %21, i64 %23
  store i32 %20, i32* %24, align 4
  br label %25

25:                                               ; preds = %14
  %26 = load i32, i32* %5, align 4
  %27 = add nsw i32 %26, 1
  store i32 %27, i32* %5, align 4
  br label %11

28:                                               ; preds = %11
  store i32 0, i32* %5, align 4
  br label %29

29:                                               ; preds = %58, %28
  %30 = load i32, i32* %5, align 4
  %31 = icmp slt i32 %30, 40
  br i1 %31, label %32, label %61

32:                                               ; preds = %29
  %33 = load i32*, i32** %4, align 8
  %34 = load i32, i32* %5, align 4
  %35 = sext i32 %34 to i64
  %36 = getelementptr inbounds i32, i32* %33, i64 %35
  %37 = load i32, i32* %36, align 4
  %38 = icmp sgt i32 %37, 9
  br i1 %38, label %39, label %57

39:                                               ; preds = %32
  %40 = load i32*, i32** %4, align 8
  %41 = load i32, i32* %5, align 4
  %42 = sext i32 %41 to i64
  %43 = getelementptr inbounds i32, i32* %40, i64 %42
  %44 = load i32, i32* %43, align 4
  %45 = sub nsw i32 %44, 10
  %46 = load i32*, i32** %4, align 8
  %47 = load i32, i32* %5, align 4
  %48 = sext i32 %47 to i64
  %49 = getelementptr inbounds i32, i32* %46, i64 %48
  store i32 %45, i32* %49, align 4
  %50 = load i32*, i32** %4, align 8
  %51 = load i32, i32* %5, align 4
  %52 = add nsw i32 %51, 1
  %53 = sext i32 %52 to i64
  %54 = getelementptr inbounds i32, i32* %50, i64 %53
  %55 = load i32, i32* %54, align 4
  %56 = add nsw i32 %55, 1
  store i32 %56, i32* %54, align 4
  br label %57

57:                                               ; preds = %39, %32
  br label %58

58:                                               ; preds = %57
  %59 = load i32, i32* %5, align 4
  %60 = add nsw i32 %59, 1
  store i32 %60, i32* %5, align 4
  br label %29

61:                                               ; preds = %29
  %62 = load i32, i32* %3, align 4
  %63 = sub nsw i32 %62, 1
  %64 = load i32*, i32** %4, align 8
  call void @_Z3muliPi(i32 %63, i32* %64)
  br label %65

65:                                               ; preds = %61, %8
  ret void
}

; Function Attrs: noinline uwtable
define dso_local void @_Z3outPi(i32* %0) #0 {
  %2 = alloca i32*, align 8
  %3 = alloca i32, align 4
  %4 = alloca i32, align 4
  store i32* %0, i32** %2, align 8
  store i32 1, i32* %4, align 4
  store i32 39, i32* %3, align 4
  br label %5

5:                                                ; preds = %36, %1
  %6 = load i32, i32* %3, align 4
  %7 = icmp sge i32 %6, 0
  br i1 %7, label %8, label %39

8:                                                ; preds = %5
  %9 = load i32, i32* %4, align 4
  %10 = icmp eq i32 %9, 0
  br i1 %10, label %11, label %18

11:                                               ; preds = %8
  %12 = load i32*, i32** %2, align 8
  %13 = load i32, i32* %3, align 4
  %14 = sext i32 %13 to i64
  %15 = getelementptr inbounds i32, i32* %12, i64 %14
  %16 = load i32, i32* %15, align 4
  %17 = call dereferenceable(272) %"class.std::basic_ostream"* @_ZNSolsEi(%"class.std::basic_ostream"* @_ZSt4cout, i32 %16)
  br label %18

18:                                               ; preds = %11, %8
  %19 = load i32*, i32** %2, align 8
  %20 = load i32, i32* %3, align 4
  %21 = sext i32 %20 to i64
  %22 = getelementptr inbounds i32, i32* %19, i64 %21
  %23 = load i32, i32* %22, align 4
  %24 = icmp sgt i32 %23, 0
  br i1 %24, label %25, label %35

25:                                               ; preds = %18
  %26 = load i32, i32* %4, align 4
  %27 = icmp eq i32 %26, 1
  br i1 %27, label %28, label %35

28:                                               ; preds = %25
  store i32 0, i32* %4, align 4
  %29 = load i32*, i32** %2, align 8
  %30 = load i32, i32* %3, align 4
  %31 = sext i32 %30 to i64
  %32 = getelementptr inbounds i32, i32* %29, i64 %31
  %33 = load i32, i32* %32, align 4
  %34 = call dereferenceable(272) %"class.std::basic_ostream"* @_ZNSolsEi(%"class.std::basic_ostream"* @_ZSt4cout, i32 %33)
  br label %35

35:                                               ; preds = %28, %25, %18
  br label %36

36:                                               ; preds = %35
  %37 = load i32, i32* %3, align 4
  %38 = add nsw i32 %37, -1
  store i32 %38, i32* %3, align 4
  br label %5

39:                                               ; preds = %5
  %40 = call dereferenceable(272) %"class.std::basic_ostream"* @_ZNSolsEPFRSoS_E(%"class.std::basic_ostream"* @_ZSt4cout, %"class.std::basic_ostream"* (%"class.std::basic_ostream"*)* @_ZSt4endlIcSt11char_traitsIcEERSt13basic_ostreamIT_T0_ES6_)
  ret void
}

declare dso_local dereferenceable(272) %"class.std::basic_ostream"* @_ZNSolsEi(%"class.std::basic_ostream"*, i32) #1

declare dso_local dereferenceable(272) %"class.std::basic_ostream"* @_ZNSolsEPFRSoS_E(%"class.std::basic_ostream"*, %"class.std::basic_ostream"* (%"class.std::basic_ostream"*)*) #1

declare dso_local dereferenceable(272) %"class.std::basic_ostream"* @_ZSt4endlIcSt11char_traitsIcEERSt13basic_ostreamIT_T0_ES6_(%"class.std::basic_ostream"* dereferenceable(272)) #1

; Function Attrs: noinline uwtable
define internal void @_GLOBAL__sub_I_99.cpp() #0 section ".text.startup" {
  call void @__cxx_global_var_init()
  ret void
}


!llvm.module.flags = !{!0}
!llvm.ident = !{!1}

!0 = !{i32 1, !"wchar_size", i32 4}
!1 = !{!"clang version 10.0.0-4ubuntu1 "}
