; ModuleID = 'source-C-CXX/24/99.cpp'
source_filename = "source-C-CXX/24/99.cpp"
target datalayout = "e-m:e-p270:32:32-p271:32:32-p272:64:64-i64:64-f80:128-n8:16:32:64-S128"
target triple = "x86_64-pc-linux-gnu"

%"class.std::ios_base::Init" = type { i8 }
%"class.std::basic_istream" = type { i32 (...)**, i64, %"class.std::basic_ios" }
%"class.std::basic_ios" = type { %"class.std::ios_base", %"class.std::basic_ostream"*, i8, i8, %"class.std::basic_streambuf"*, %"class.std::ctype"*, %"class.std::num_put"*, %"class.std::num_get"* }
%"class.std::ios_base" = type { i32 (...)**, i64, i64, i32, i32, i32, %"struct.std::ios_base::_Callback_list"*, %"struct.std::ios_base::_Words", [8 x %"struct.std::ios_base::_Words"], i32, %"struct.std::ios_base::_Words"*, %"class.std::locale" }
%"struct.std::ios_base::_Callback_list" = type { %"struct.std::ios_base::_Callback_list"*, void (i32, %"class.std::ios_base"*, i32)*, i32, i32 }
%"struct.std::ios_base::_Words" = type { i8*, i64 }
%"class.std::locale" = type { %"class.std::locale::_Impl"* }
%"class.std::locale::_Impl" = type { i32, %"class.std::locale::facet"**, i64, %"class.std::locale::facet"**, i8** }
%"class.std::locale::facet" = type <{ i32 (...)**, i32, [4 x i8] }>
%"class.std::basic_ostream" = type { i32 (...)**, %"class.std::basic_ios" }
%"class.std::basic_streambuf" = type { i32 (...)**, i8*, i8*, i8*, i8*, i8*, i8*, %"class.std::locale" }
%"class.std::ctype" = type <{ %"class.std::locale::facet.base", [4 x i8], %struct.__locale_struct*, i8, [7 x i8], i32*, i32*, i16*, i8, [256 x i8], [256 x i8], i8, [6 x i8] }>
%"class.std::locale::facet.base" = type <{ i32 (...)**, i32 }>
%struct.__locale_struct = type { [13 x %struct.__locale_data*], i16*, i32*, i32*, [13 x i8*] }
%struct.__locale_data = type opaque
%"class.std::num_put" = type { %"class.std::locale::facet.base", [4 x i8] }
%"class.std::num_get" = type { %"class.std::locale::facet.base", [4 x i8] }

@_ZStL8__ioinit = internal global %"class.std::ios_base::Init" zeroinitializer, align 1
@__dso_handle = external hidden global i8
@_ZSt3cin = external global %"class.std::basic_istream", align 8
@_ZSt4cout = external global %"class.std::basic_ostream", align 8
@llvm.global_ctors = appending global [1 x { i32, void ()*, i8* }] [{ i32, void ()*, i8* } { i32 65535, void ()* @_GLOBAL__sub_I_99.cpp, i8* null }]

declare void @_ZNSt8ios_base4InitC1Ev(%"class.std::ios_base::Init"* nonnull align 1 dereferenceable(1)) unnamed_addr #0

; Function Attrs: nounwind
declare void @_ZNSt8ios_base4InitD1Ev(%"class.std::ios_base::Init"* nonnull align 1 dereferenceable(1)) unnamed_addr #1

; Function Attrs: nofree nounwind
declare i32 @__cxa_atexit(void (i8*)*, i8*, i8*) local_unnamed_addr #2

; Function Attrs: mustprogress norecurse sspstrong uwtable
define dso_local i32 @main() local_unnamed_addr #3 {
  %1 = alloca i32, align 4
  %2 = alloca [40 x i32], align 16
  %3 = bitcast i32* %1 to i8*
  call void @llvm.lifetime.start.p0i8(i64 4, i8* nonnull %3) #9
  %4 = bitcast [40 x i32]* %2 to i8*
  call void @llvm.lifetime.start.p0i8(i64 160, i8* nonnull %4) #9
  call void @llvm.memset.p0i8.i64(i8* noundef nonnull align 16 dereferenceable(160) %4, i8 0, i64 160, i1 false)
  %5 = getelementptr inbounds [40 x i32], [40 x i32]* %2, i64 0, i64 0
  store i32 1, i32* %5, align 16
  %6 = call nonnull align 8 dereferenceable(16) %"class.std::basic_istream"* @_ZNSirsERi(%"class.std::basic_istream"* nonnull align 8 dereferenceable(16) @_ZSt3cin, i32* nonnull align 4 dereferenceable(4) %1)
  %7 = load i32, i32* %1, align 4, !tbaa !5
  call void @_Z3muliPi(i32 %7, i32* nonnull %5)
  call void @llvm.lifetime.end.p0i8(i64 160, i8* nonnull %4) #9
  call void @llvm.lifetime.end.p0i8(i64 4, i8* nonnull %3) #9
  ret i32 0
}

; Function Attrs: argmemonly mustprogress nofree nosync nounwind willreturn
declare void @llvm.lifetime.start.p0i8(i64 immarg, i8* nocapture) #4

; Function Attrs: argmemonly mustprogress nofree nounwind willreturn writeonly
declare void @llvm.memset.p0i8.i64(i8* nocapture writeonly, i8, i64, i1 immarg) #5

declare nonnull align 8 dereferenceable(16) %"class.std::basic_istream"* @_ZNSirsERi(%"class.std::basic_istream"* nonnull align 8 dereferenceable(16), i32* nonnull align 4 dereferenceable(4)) local_unnamed_addr #0

; Function Attrs: mustprogress sspstrong uwtable
define dso_local void @_Z3muliPi(i32 %0, i32* nocapture %1) local_unnamed_addr #6 {
  %3 = icmp eq i32 %0, 0
  br i1 %3, label %56, label %4

4:                                                ; preds = %2
  %5 = getelementptr inbounds i32, i32* %1, i64 4
  %6 = getelementptr inbounds i32, i32* %1, i64 8
  %7 = getelementptr inbounds i32, i32* %1, i64 12
  %8 = getelementptr inbounds i32, i32* %1, i64 16
  %9 = getelementptr inbounds i32, i32* %1, i64 20
  %10 = getelementptr inbounds i32, i32* %1, i64 24
  %11 = getelementptr inbounds i32, i32* %1, i64 28
  %12 = getelementptr inbounds i32, i32* %1, i64 32
  %13 = getelementptr inbounds i32, i32* %1, i64 36
  %14 = bitcast i32* %1 to <4 x i32>*
  %15 = bitcast i32* %1 to <4 x i32>*
  %16 = bitcast i32* %5 to <4 x i32>*
  %17 = bitcast i32* %5 to <4 x i32>*
  %18 = bitcast i32* %6 to <4 x i32>*
  %19 = bitcast i32* %6 to <4 x i32>*
  %20 = bitcast i32* %7 to <4 x i32>*
  %21 = bitcast i32* %7 to <4 x i32>*
  %22 = bitcast i32* %8 to <4 x i32>*
  %23 = bitcast i32* %8 to <4 x i32>*
  %24 = bitcast i32* %9 to <4 x i32>*
  %25 = bitcast i32* %9 to <4 x i32>*
  %26 = bitcast i32* %10 to <4 x i32>*
  %27 = bitcast i32* %10 to <4 x i32>*
  %28 = bitcast i32* %11 to <4 x i32>*
  %29 = bitcast i32* %11 to <4 x i32>*
  %30 = bitcast i32* %12 to <4 x i32>*
  %31 = bitcast i32* %12 to <4 x i32>*
  %32 = bitcast i32* %13 to <4 x i32>*
  %33 = bitcast i32* %13 to <4 x i32>*
  br label %34

34:                                               ; preds = %4, %73
  %35 = phi i32 [ %74, %73 ], [ %0, %4 ]
  %36 = load <4 x i32>, <4 x i32>* %14, align 4, !tbaa !5
  %37 = shl nsw <4 x i32> %36, <i32 1, i32 1, i32 1, i32 1>
  store <4 x i32> %37, <4 x i32>* %15, align 4, !tbaa !5
  %38 = load <4 x i32>, <4 x i32>* %16, align 4, !tbaa !5
  %39 = shl nsw <4 x i32> %38, <i32 1, i32 1, i32 1, i32 1>
  store <4 x i32> %39, <4 x i32>* %17, align 4, !tbaa !5
  %40 = load <4 x i32>, <4 x i32>* %18, align 4, !tbaa !5
  %41 = shl nsw <4 x i32> %40, <i32 1, i32 1, i32 1, i32 1>
  store <4 x i32> %41, <4 x i32>* %19, align 4, !tbaa !5
  %42 = load <4 x i32>, <4 x i32>* %20, align 4, !tbaa !5
  %43 = shl nsw <4 x i32> %42, <i32 1, i32 1, i32 1, i32 1>
  store <4 x i32> %43, <4 x i32>* %21, align 4, !tbaa !5
  %44 = load <4 x i32>, <4 x i32>* %22, align 4, !tbaa !5
  %45 = shl nsw <4 x i32> %44, <i32 1, i32 1, i32 1, i32 1>
  store <4 x i32> %45, <4 x i32>* %23, align 4, !tbaa !5
  %46 = load <4 x i32>, <4 x i32>* %24, align 4, !tbaa !5
  %47 = shl nsw <4 x i32> %46, <i32 1, i32 1, i32 1, i32 1>
  store <4 x i32> %47, <4 x i32>* %25, align 4, !tbaa !5
  %48 = load <4 x i32>, <4 x i32>* %26, align 4, !tbaa !5
  %49 = shl nsw <4 x i32> %48, <i32 1, i32 1, i32 1, i32 1>
  store <4 x i32> %49, <4 x i32>* %27, align 4, !tbaa !5
  %50 = load <4 x i32>, <4 x i32>* %28, align 4, !tbaa !5
  %51 = shl nsw <4 x i32> %50, <i32 1, i32 1, i32 1, i32 1>
  store <4 x i32> %51, <4 x i32>* %29, align 4, !tbaa !5
  %52 = load <4 x i32>, <4 x i32>* %30, align 4, !tbaa !5
  %53 = shl nsw <4 x i32> %52, <i32 1, i32 1, i32 1, i32 1>
  store <4 x i32> %53, <4 x i32>* %31, align 4, !tbaa !5
  %54 = load <4 x i32>, <4 x i32>* %32, align 4, !tbaa !5
  %55 = shl nsw <4 x i32> %54, <i32 1, i32 1, i32 1, i32 1>
  store <4 x i32> %55, <4 x i32>* %33, align 4, !tbaa !5
  br label %57

56:                                               ; preds = %73, %2
  tail call void @_Z3outPi(i32* %1)
  ret void

57:                                               ; preds = %34, %70
  %58 = phi i64 [ 0, %34 ], [ %71, %70 ]
  %59 = getelementptr inbounds i32, i32* %1, i64 %58
  %60 = load i32, i32* %59, align 4, !tbaa !5
  %61 = icmp sgt i32 %60, 9
  br i1 %61, label %64, label %62

62:                                               ; preds = %57
  %63 = add nuw nsw i64 %58, 1
  br label %70

64:                                               ; preds = %57
  %65 = add nsw i32 %60, -10
  store i32 %65, i32* %59, align 4, !tbaa !5
  %66 = add nuw nsw i64 %58, 1
  %67 = getelementptr inbounds i32, i32* %1, i64 %66
  %68 = load i32, i32* %67, align 4, !tbaa !5
  %69 = add nsw i32 %68, 1
  store i32 %69, i32* %67, align 4, !tbaa !5
  br label %70

70:                                               ; preds = %62, %64
  %71 = phi i64 [ %63, %62 ], [ %66, %64 ]
  %72 = icmp eq i64 %71, 40
  br i1 %72, label %73, label %57, !llvm.loop !9

73:                                               ; preds = %70
  %74 = add nsw i32 %35, -1
  %75 = icmp eq i32 %74, 0
  br i1 %75, label %56, label %34
}

; Function Attrs: argmemonly mustprogress nofree nosync nounwind willreturn
declare void @llvm.lifetime.end.p0i8(i64 immarg, i8* nocapture) #4

; Function Attrs: mustprogress sspstrong uwtable
define dso_local void @_Z3outPi(i32* nocapture readonly %0) local_unnamed_addr #6 {
  br label %2

2:                                                ; preds = %1, %14
  %3 = phi i64 [ 39, %1 ], [ %16, %14 ]
  %4 = phi i32 [ 1, %1 ], [ %15, %14 ]
  %5 = icmp eq i32 %4, 0
  %6 = getelementptr inbounds i32, i32* %0, i64 %3
  %7 = load i32, i32* %6, align 4, !tbaa !5
  br i1 %5, label %12, label %8

8:                                                ; preds = %2
  %9 = icmp sgt i32 %7, 0
  %10 = icmp eq i32 %4, 1
  %11 = select i1 %9, i1 %10, i1 false
  br i1 %11, label %12, label %14

12:                                               ; preds = %8, %2
  %13 = tail call nonnull align 8 dereferenceable(8) %"class.std::basic_ostream"* @_ZNSolsEi(%"class.std::basic_ostream"* nonnull align 8 dereferenceable(8) @_ZSt4cout, i32 %7)
  br label %14

14:                                               ; preds = %12, %8
  %15 = phi i32 [ %4, %8 ], [ 0, %12 ]
  %16 = add nsw i64 %3, -1
  %17 = icmp eq i64 %3, 0
  br i1 %17, label %18, label %2, !llvm.loop !11

18:                                               ; preds = %14
  %19 = load i8*, i8** bitcast (%"class.std::basic_ostream"* @_ZSt4cout to i8**), align 8, !tbaa !12
  %20 = getelementptr i8, i8* %19, i64 -24
  %21 = bitcast i8* %20 to i64*
  %22 = load i64, i64* %21, align 8
  %23 = add nsw i64 %22, 240
  %24 = getelementptr inbounds i8, i8* bitcast (%"class.std::basic_ostream"* @_ZSt4cout to i8*), i64 %23
  %25 = bitcast i8* %24 to %"class.std::ctype"**
  %26 = load %"class.std::ctype"*, %"class.std::ctype"** %25, align 8, !tbaa !14
  %27 = icmp eq %"class.std::ctype"* %26, null
  br i1 %27, label %28, label %29

28:                                               ; preds = %18
  tail call void @_ZSt16__throw_bad_castv() #10
  unreachable

29:                                               ; preds = %18
  %30 = getelementptr inbounds %"class.std::ctype", %"class.std::ctype"* %26, i64 0, i32 8
  %31 = load i8, i8* %30, align 8, !tbaa !18
  %32 = icmp eq i8 %31, 0
  br i1 %32, label %36, label %33

33:                                               ; preds = %29
  %34 = getelementptr inbounds %"class.std::ctype", %"class.std::ctype"* %26, i64 0, i32 9, i64 10
  %35 = load i8, i8* %34, align 1, !tbaa !20
  br label %42

36:                                               ; preds = %29
  tail call void @_ZNKSt5ctypeIcE13_M_widen_initEv(%"class.std::ctype"* nonnull align 8 dereferenceable(570) %26)
  %37 = bitcast %"class.std::ctype"* %26 to i8 (%"class.std::ctype"*, i8)***
  %38 = load i8 (%"class.std::ctype"*, i8)**, i8 (%"class.std::ctype"*, i8)*** %37, align 8, !tbaa !12
  %39 = getelementptr inbounds i8 (%"class.std::ctype"*, i8)*, i8 (%"class.std::ctype"*, i8)** %38, i64 6
  %40 = load i8 (%"class.std::ctype"*, i8)*, i8 (%"class.std::ctype"*, i8)** %39, align 8
  %41 = tail call signext i8 %40(%"class.std::ctype"* nonnull align 8 dereferenceable(570) %26, i8 signext 10)
  br label %42

42:                                               ; preds = %33, %36
  %43 = phi i8 [ %35, %33 ], [ %41, %36 ]
  %44 = tail call nonnull align 8 dereferenceable(8) %"class.std::basic_ostream"* @_ZNSo3putEc(%"class.std::basic_ostream"* nonnull align 8 dereferenceable(8) @_ZSt4cout, i8 signext %43)
  %45 = tail call nonnull align 8 dereferenceable(8) %"class.std::basic_ostream"* @_ZNSo5flushEv(%"class.std::basic_ostream"* nonnull align 8 dereferenceable(8) %44)
  ret void
}

declare nonnull align 8 dereferenceable(8) %"class.std::basic_ostream"* @_ZNSolsEi(%"class.std::basic_ostream"* nonnull align 8 dereferenceable(8), i32) local_unnamed_addr #0

declare nonnull align 8 dereferenceable(8) %"class.std::basic_ostream"* @_ZNSo3putEc(%"class.std::basic_ostream"* nonnull align 8 dereferenceable(8), i8 signext) local_unnamed_addr #0

declare nonnull align 8 dereferenceable(8) %"class.std::basic_ostream"* @_ZNSo5flushEv(%"class.std::basic_ostream"* nonnull align 8 dereferenceable(8)) local_unnamed_addr #0

; Function Attrs: noreturn
declare void @_ZSt16__throw_bad_castv() local_unnamed_addr #7

declare void @_ZNKSt5ctypeIcE13_M_widen_initEv(%"class.std::ctype"* nonnull align 8 dereferenceable(570)) local_unnamed_addr #0

; Function Attrs: sspstrong uwtable
define internal void @_GLOBAL__sub_I_99.cpp() #8 section ".text.startup" {
  tail call void @_ZNSt8ios_base4InitC1Ev(%"class.std::ios_base::Init"* nonnull align 1 dereferenceable(1) @_ZStL8__ioinit)
  %1 = tail call i32 @__cxa_atexit(void (i8*)* bitcast (void (%"class.std::ios_base::Init"*)* @_ZNSt8ios_base4InitD1Ev to void (i8*)*), i8* getelementptr inbounds (%"class.std::ios_base::Init", %"class.std::ios_base::Init"* @_ZStL8__ioinit, i64 0, i32 0), i8* nonnull @__dso_handle) #9
  ret void
}


!llvm.module.flags = !{!0, !1, !2, !3}
!llvm.ident = !{!4}

!0 = !{i32 1, !"wchar_size", i32 4}
!1 = !{i32 7, !"PIC Level", i32 2}
!2 = !{i32 7, !"PIE Level", i32 2}
!3 = !{i32 7, !"uwtable", i32 1}
!4 = !{!"clang version 13.0.0"}
!5 = !{!6, !6, i64 0}
!6 = !{!"int", !7, i64 0}
!7 = !{!"omnipotent char", !8, i64 0}
!8 = !{!"Simple C++ TBAA"}
!9 = distinct !{!9, !10}
!10 = !{!"llvm.loop.mustprogress"}
!11 = distinct !{!11, !10}
!12 = !{!13, !13, i64 0}
!13 = !{!"vtable pointer", !8, i64 0}
!14 = !{!15, !16, i64 240}
!15 = !{!"_ZTSSt9basic_iosIcSt11char_traitsIcEE", !16, i64 216, !7, i64 224, !17, i64 225, !16, i64 232, !16, i64 240, !16, i64 248, !16, i64 256}
!16 = !{!"any pointer", !7, i64 0}
!17 = !{!"bool", !7, i64 0}
!18 = !{!19, !7, i64 56}
!19 = !{!"_ZTSSt5ctypeIcE", !16, i64 16, !17, i64 24, !16, i64 32, !16, i64 40, !16, i64 48, !7, i64 56, !7, i64 57, !7, i64 313, !7, i64 569}
!20 = !{!7, !7, i64 0}
